; Function Attrs: nounwind uwtable
define ptr @l_Lean_Parser_registerAliasCore___rarg___lambda__1(ptr noundef %0, ptr noundef %1, ptr noundef %2, ptr readnone captures(none) %3, ptr noundef %4) local_unnamed_addr #1 {
  %6 = tail call ptr @lean_st_ref_take(ptr noundef %0, ptr noundef %4) #6
  %7 = getelementptr inbounds nuw i8, ptr %6, i64 8
  %8 = load ptr, ptr %7, align 8, !tbaa !9
  %9 = ptrtoint ptr %8 to i64
  %10 = and i64 %9, 1
  %.not = icmp eq i64 %10, 0
  br i1 %.not, label %11, label %lean_inc.exit28

11:                                               ; preds = %5
  %.val.i = load i32, ptr %8, align 4, !tbaa !4
  %12 = icmp sgt i32 %.val.i, 0
  br i1 %12, label %13, label %15, !prof !11

13:                                               ; preds = %11
  %14 = add nuw i32 %.val.i, 1
  store i32 %14, ptr %8, align 4, !tbaa !4
  br label %lean_inc.exit28

15:                                               ; preds = %11
  %.not.i32 = icmp eq i32 %.val.i, 0
  br i1 %.not.i32, label %lean_inc.exit28, label %16

16:                                               ; preds = %15
  tail call void @lean_inc_ref_cold(ptr noundef nonnull %8) #6
  br label %lean_inc.exit28

lean_inc.exit28:                                  ; preds = %16, %15, %13, %5
  %17 = getelementptr inbounds nuw i8, ptr %6, i64 16
  %18 = load ptr, ptr %17, align 8, !tbaa !9
  %19 = ptrtoint ptr %18 to i64
  %20 = and i64 %19, 1
  %.not42 = icmp eq i64 %20, 0
  br i1 %.not42, label %21, label %lean_inc.exit27

21:                                               ; preds = %lean_inc.exit28
  %.val.i33 = load i32, ptr %18, align 4, !tbaa !4
  %22 = icmp sgt i32 %.val.i33, 0
  br i1 %22, label %23, label %25, !prof !11

23:                                               ; preds = %21
  %24 = add nuw i32 %.val.i33, 1
  store i32 %24, ptr %18, align 4, !tbaa !4
  br label %lean_inc.exit27

25:                                               ; preds = %21
  %.not.i34 = icmp eq i32 %.val.i33, 0
  br i1 %.not.i34, label %lean_inc.exit27, label %26

26:                                               ; preds = %25
  tail call void @lean_inc_ref_cold(ptr noundef nonnull %18) #6
  br label %lean_inc.exit27

lean_inc.exit27:                                  ; preds = %26, %25, %23, %lean_inc.exit28
  %27 = ptrtoint ptr %6 to i64
  %28 = and i64 %27, 1
  %.not43 = icmp eq i64 %28, 0
  br i1 %.not43, label %29, label %lean_dec.exit29

29:                                               ; preds = %lean_inc.exit27
  %30 = load i32, ptr %6, align 4, !tbaa !4
  %31 = icmp sgt i32 %30, 1
  br i1 %31, label %32, label %34, !prof !11

32:                                               ; preds = %29
  %33 = add nsw i32 %30, -1
  store i32 %33, ptr %6, align 4, !tbaa !4
  br label %lean_dec.exit29

34:                                               ; preds = %29
  %.not.i = icmp eq i32 %30, 0
  br i1 %.not.i, label %lean_dec.exit29, label %35

35:                                               ; preds = %34
  tail call void @lean_dec_ref_cold(ptr noundef nonnull %6) #6
  br label %lean_dec.exit29

lean_dec.exit29:                                  ; preds = %35, %34, %32, %lean_inc.exit27
  %36 = tail call ptr @l_Lean_RBNode_insert___at_Lean_NameMap_insert___spec__1___rarg(ptr noundef %8, ptr noundef %1, ptr noundef %2) #6
  %37 = tail call ptr @lean_st_ref_set(ptr noundef %0, ptr noundef %36, ptr noundef %18) #6
  %.val = load i32, ptr %37, align 4, !tbaa !4
  %38 = icmp eq i32 %.val, 1
  br i1 %38, label %75, label %39

39:                                               ; preds = %lean_dec.exit29
  %40 = getelementptr inbounds nuw i8, ptr %37, i64 8
  %41 = load ptr, ptr %40, align 8, !tbaa !9
  %42 = getelementptr inbounds nuw i8, ptr %37, i64 16
  %43 = load ptr, ptr %42, align 8, !tbaa !9
  %44 = ptrtoint ptr %43 to i64
  %45 = and i64 %44, 1
  %.not44 = icmp eq i64 %45, 0
  br i1 %.not44, label %46, label %lean_inc.exit26

46:                                               ; preds = %39
  %.val.i36 = load i32, ptr %43, align 4, !tbaa !4
  %47 = icmp sgt i32 %.val.i36, 0
  br i1 %47, label %48, label %50, !prof !11

48:                                               ; preds = %46
  %49 = add nuw i32 %.val.i36, 1
  store i32 %49, ptr %43, align 4, !tbaa !4
  br label %lean_inc.exit26

50:                                               ; preds = %46
  %.not.i37 = icmp eq i32 %.val.i36, 0
  br i1 %.not.i37, label %lean_inc.exit26, label %51

51:                                               ; preds = %50
  tail call void @lean_inc_ref_cold(ptr noundef nonnull %43) #6
  br label %lean_inc.exit26

lean_inc.exit26:                                  ; preds = %51, %50, %48, %39
  %52 = ptrtoint ptr %41 to i64
  %53 = and i64 %52, 1
  %.not45 = icmp eq i64 %53, 0
  br i1 %.not45, label %54, label %lean_inc.exit

54:                                               ; preds = %lean_inc.exit26
  %.val.i39 = load i32, ptr %41, align 4, !tbaa !4
  %55 = icmp sgt i32 %.val.i39, 0
  br i1 %55, label %56, label %58, !prof !11

56:                                               ; preds = %54
  %57 = add nuw i32 %.val.i39, 1
  store i32 %57, ptr %41, align 4, !tbaa !4
  br label %lean_inc.exit

58:                                               ; preds = %54
  %.not.i40 = icmp eq i32 %.val.i39, 0
  br i1 %.not.i40, label %lean_inc.exit, label %59

59:                                               ; preds = %58
  tail call void @lean_inc_ref_cold(ptr noundef nonnull %41) #6
  br label %lean_inc.exit

lean_inc.exit:                                    ; preds = %59, %58, %56, %lean_inc.exit26
  %60 = ptrtoint ptr %37 to i64
  %61 = and i64 %60, 1
  %.not46 = icmp eq i64 %61, 0
  br i1 %.not46, label %62, label %lean_dec.exit

62:                                               ; preds = %lean_inc.exit
  %63 = load i32, ptr %37, align 4, !tbaa !4
  %64 = icmp sgt i32 %63, 1
  br i1 %64, label %65, label %67, !prof !11

65:                                               ; preds = %62
  %66 = add nsw i32 %63, -1
  store i32 %66, ptr %37, align 4, !tbaa !4
  br label %lean_dec.exit

67:                                               ; preds = %62
  %.not.i30 = icmp eq i32 %63, 0
  br i1 %.not.i30, label %lean_dec.exit, label %68

68:                                               ; preds = %67
  tail call void @lean_dec_ref_cold(ptr noundef nonnull %37) #6
  br label %lean_dec.exit

lean_dec.exit:                                    ; preds = %68, %67, %65, %lean_inc.exit
  tail call void @lean_inc_heartbeat() #6
  %69 = tail call noalias ptr @mi_malloc_small(i64 noundef 24) #6
  %70 = icmp eq ptr %69, null
  br i1 %70, label %71, label %lean_alloc_ctor.exit

71:                                               ; preds = %lean_dec.exit
  tail call void @lean_internal_panic_out_of_memory() #7
  unreachable

lean_alloc_ctor.exit:                             ; preds = %lean_dec.exit
  %72 = getelementptr inbounds nuw i8, ptr %69, i64 4
  store i32 1, ptr %69, align 4, !tbaa !4
  store i32 131096, ptr %72, align 4
  %73 = getelementptr inbounds nuw i8, ptr %69, i64 8
  store ptr %41, ptr %73, align 8, !tbaa !9
  %74 = getelementptr inbounds nuw i8, ptr %69, i64 16
  store ptr %43, ptr %74, align 8, !tbaa !9
  br label %75

75:                                               ; preds = %lean_dec.exit29, %lean_alloc_ctor.exit
  %.0 = phi ptr [ %69, %lean_alloc_ctor.exit ], [ %37, %lean_dec.exit29 ]
  ret ptr %.0
}